target datalayout = "e-m:e-p270:32:32-p271:32:32-p272:64:64-i64:64-i128:128-f80:128-n8:16:32:64-S128"
target triple = "x86_64-pc-linux-gnu"

%struct.ident_t = type { i32, i32, i32, i32, ptr }
%"class.ncnn::Scale" = type { %"class.ncnn::Layer", i32, i32, %"class.ncnn::Mat", %"class.ncnn::Mat" }
%"class.ncnn::Layer" = type { ptr, i8, i8, i8, i8, i8, i8, i8, i8, i8, i8, i8, i8, i8, i8, i8, i8, i8, i8, i8, i8, i32, ptr, i32, %"class.std::__cxx11::basic_string", %"class.std::__cxx11::basic_string", %"class.std::vector", %"class.std::vector", %"class.std::vector.3", %"class.std::vector.3" }
%"class.std::__cxx11::basic_string" = type { %"struct.std::__cxx11::basic_string<char>::_Alloc_hider", i64, %union.anon }
%"struct.std::__cxx11::basic_string<char>::_Alloc_hider" = type { ptr }
%union.anon = type { i64, [8 x i8] }
%"class.std::vector" = type { %"struct.std::_Vector_base" }
%"struct.std::_Vector_base" = type { %"struct.std::_Vector_base<int, std::allocator<int>>::_Vector_impl" }
%"struct.std::_Vector_base<int, std::allocator<int>>::_Vector_impl" = type { %"struct.std::_Vector_base<int, std::allocator<int>>::_Vector_impl_data" }
%"struct.std::_Vector_base<int, std::allocator<int>>::_Vector_impl_data" = type { ptr, ptr, ptr }
%"class.std::vector.3" = type { %"struct.std::_Vector_base.4" }
%"struct.std::_Vector_base.4" = type { %"struct.std::_Vector_base<ncnn::Mat, std::allocator<ncnn::Mat>>::_Vector_impl" }
%"struct.std::_Vector_base<ncnn::Mat, std::allocator<ncnn::Mat>>::_Vector_impl" = type { %"struct.std::_Vector_base<ncnn::Mat, std::allocator<ncnn::Mat>>::_Vector_impl_data" }
%"struct.std::_Vector_base<ncnn::Mat, std::allocator<ncnn::Mat>>::_Vector_impl_data" = type { ptr, ptr, ptr }
%"class.ncnn::Mat" = type { ptr, ptr, i64, i32, ptr, i32, i32, i32, i32, i32, i64 }

@1 = private unnamed_addr constant %struct.ident_t { i32 0, i32 514, i32 0, i32 22, ptr @0 }, align 8

; Function Attrs: noinline noreturn nounwind uwtable
define linkonce_odr hidden void @__clang_call_terminate(ptr noundef %0) #6 comdat {
  %2 = call ptr @__cxa_begin_catch(ptr %0) #10
  call void @_ZSt9terminatev() #17
  unreachable
}

; Function Attrs: alwaysinline mustprogress nounwind uwtable
define linkonce_odr hidden noundef nonnull align 4 dereferenceable(4) ptr @_ZNK4ncnn3MatixEm(ptr noundef nonnull align 8 dereferenceable(72) %0, i64 noundef %1) #3 comdat align 2 {
  %3 = alloca ptr, align 8
  %4 = alloca i64, align 8
  store ptr %0, ptr %3, align 8, !tbaa !42
  store i64 %1, ptr %4, align 8, !tbaa !61
  %5 = load ptr, ptr %3, align 8
  %6 = getelementptr inbounds nuw %"class.ncnn::Mat", ptr %5, i32 0, i32 0
  %7 = load ptr, ptr %6, align 8, !tbaa !53
  %8 = load i64, ptr %4, align 8, !tbaa !61
  %9 = getelementptr inbounds nuw float, ptr %7, i64 %8
  ret ptr %9
}

; Function Attrs: alwaysinline mustprogress nounwind uwtable
define linkonce_odr hidden noundef ptr @_ZN4ncnn3Mat3rowEi(ptr noundef nonnull align 8 dereferenceable(72) %0, i32 noundef %1) #3 comdat align 2 {
  %3 = alloca ptr, align 8
  %4 = alloca i32, align 4
  store ptr %0, ptr %3, align 8, !tbaa !42
  store i32 %1, ptr %4, align 4, !tbaa !44
  %5 = load ptr, ptr %3, align 8
  %6 = getelementptr inbounds nuw %"class.ncnn::Mat", ptr %5, i32 0, i32 0
  %7 = load ptr, ptr %6, align 8, !tbaa !53
  %8 = getelementptr inbounds nuw %"class.ncnn::Mat", ptr %5, i32 0, i32 6
  %9 = load i32, ptr %8, align 4, !tbaa !45
  %10 = sext i32 %9 to i64
  %11 = load i32, ptr %4, align 4, !tbaa !44
  %12 = sext i32 %11 to i64
  %13 = mul i64 %10, %12
  %14 = getelementptr inbounds nuw %"class.ncnn::Mat", ptr %5, i32 0, i32 2
  %15 = load i64, ptr %14, align 8, !tbaa !55
  %16 = mul i64 %13, %15
  %17 = getelementptr inbounds nuw i8, ptr %7, i64 %16
  ret ptr %17
}

; Function Attrs: alwaysinline norecurse nounwind uwtable
define internal void @_ZNK4ncnn5Scale15forward_inplaceERSt6vectorINS_3MatESaIS2_EERKNS_6OptionE.omp_outlined.2(ptr noalias noundef %0, ptr noalias noundef %1, ptr noundef nonnull align 4 dereferenceable(4) %2, ptr noundef nonnull align 8 dereferenceable(72) %3, ptr noundef nonnull align 8 dereferenceable(72) %4, ptr noundef %5, ptr noundef nonnull align 4 dereferenceable(4) %6) #9 personality ptr @__gxx_personality_v0 {
  %8 = alloca ptr, align 8
  %9 = alloca ptr, align 8
  %10 = alloca ptr, align 8
  %11 = alloca ptr, align 8
  %12 = alloca ptr, align 8
  %13 = alloca ptr, align 8
  %14 = alloca ptr, align 8
  %15 = alloca ptr, align 8
  %16 = alloca ptr, align 8
  %17 = alloca i32, align 4
  %18 = alloca i32, align 4
  %19 = alloca i32, align 4
  %20 = alloca i32, align 4
  %21 = alloca i32, align 4
  %22 = alloca i32, align 4
  %23 = alloca i32, align 4
  %24 = alloca i32, align 4
  %25 = alloca i32, align 4
  %26 = alloca ptr, align 8
  %27 = alloca float, align 4
  %28 = alloca float, align 4
  %29 = alloca i32, align 4
  store ptr %0, ptr %8, align 8, !tbaa !63
  store ptr %1, ptr %9, align 8, !tbaa !63
  store ptr %2, ptr %10, align 8, !tbaa !63
  store ptr %3, ptr %11, align 8, !tbaa !42
  store ptr %4, ptr %12, align 8, !tbaa !42
  store ptr %5, ptr %13, align 8, !tbaa !4
  store ptr %6, ptr %14, align 8, !tbaa !63
  %30 = load ptr, ptr %10, align 8, !tbaa !63
  %31 = load ptr, ptr %11, align 8, !tbaa !42
  %32 = load ptr, ptr %12, align 8, !tbaa !42
  %33 = load ptr, ptr %13, align 8, !tbaa !4
  %34 = load ptr, ptr %14, align 8, !tbaa !63
  store ptr %31, ptr %15, align 8
  store ptr %32, ptr %16, align 8
  call void @llvm.lifetime.start.p0(i64 4, ptr %17) #10
  call void @llvm.lifetime.start.p0(i64 4, ptr %18) #10
  %35 = load i32, ptr %30, align 4, !tbaa !44
  store i32 %35, ptr %18, align 4, !tbaa !44
  call void @llvm.lifetime.start.p0(i64 4, ptr %19) #10
  %36 = load i32, ptr %18, align 4, !tbaa !44
  %37 = sub nsw i32 %36, 0
  %38 = sdiv i32 %37, 1
  %39 = sub nsw i32 %38, 1
  store i32 %39, ptr %19, align 4, !tbaa !44
  call void @llvm.lifetime.start.p0(i64 4, ptr %20) #10
  store i32 0, ptr %20, align 4, !tbaa !44
  call void @llvm.lifetime.end.p0(i64 4, ptr %20) #10
  %40 = load i32, ptr %18, align 4, !tbaa !44
  %41 = icmp slt i32 0, %40
  br i1 %41, label %42, label %112

42:                                               ; preds = %7
  call void @llvm.lifetime.start.p0(i64 4, ptr %21) #10
  store i32 0, ptr %21, align 4, !tbaa !44
  call void @llvm.lifetime.start.p0(i64 4, ptr %22) #10
  %43 = load i32, ptr %19, align 4, !tbaa !44
  store i32 %43, ptr %22, align 4, !tbaa !44
  call void @llvm.lifetime.start.p0(i64 4, ptr %23) #10
  store i32 1, ptr %23, align 4, !tbaa !44
  call void @llvm.lifetime.start.p0(i64 4, ptr %24) #10
  store i32 0, ptr %24, align 4, !tbaa !44
  call void @llvm.lifetime.start.p0(i64 4, ptr %25) #10
  %44 = load ptr, ptr %8, align 8
  %45 = load i32, ptr %44, align 4, !tbaa !44
  call void @__kmpc_for_static_init_4(ptr @1, i32 %45, i32 34, ptr %24, ptr %21, ptr %22, ptr %23, i32 1, i32 1)
  %46 = load i32, ptr %22, align 4, !tbaa !44
  %47 = load i32, ptr %19, align 4, !tbaa !44
  %48 = icmp sgt i32 %46, %47
  br i1 %48, label %49, label %51

49:                                               ; preds = %42
  %50 = load i32, ptr %19, align 4, !tbaa !44
  br label %53

51:                                               ; preds = %42
  %52 = load i32, ptr %22, align 4, !tbaa !44
  br label %53

53:                                               ; preds = %51, %49
  %54 = phi i32 [ %50, %49 ], [ %52, %51 ]
  store i32 %54, ptr %22, align 4, !tbaa !44
  %55 = load i32, ptr %21, align 4, !tbaa !44
  store i32 %55, ptr %17, align 4, !tbaa !44
  br label %56

56:                                               ; preds = %105, %53
  %57 = load i32, ptr %17, align 4, !tbaa !44
  %58 = load i32, ptr %22, align 4, !tbaa !44
  %59 = icmp sle i32 %57, %58
  br i1 %59, label %61, label %60

60:                                               ; preds = %56
  br label %108

61:                                               ; preds = %56
  %62 = load i32, ptr %17, align 4, !tbaa !44
  %63 = mul nsw i32 %62, 1
  %64 = add nsw i32 0, %63
  store i32 %64, ptr %25, align 4, !tbaa !44
  call void @llvm.lifetime.start.p0(i64 8, ptr %26) #10
  %65 = load ptr, ptr %15, align 8, !tbaa !42
  %66 = load i32, ptr %25, align 4, !tbaa !44
  %67 = invoke noundef ptr @_ZN4ncnn3Mat3rowEi(ptr noundef nonnull align 8 dereferenceable(72) %65, i32 noundef %66)
          to label %68 unwind label %113

68:                                               ; preds = %61
  store ptr %67, ptr %26, align 8, !tbaa !46
  call void @llvm.lifetime.start.p0(i64 4, ptr %27) #10
  %69 = load ptr, ptr %16, align 8, !tbaa !42
  %70 = load i32, ptr %25, align 4, !tbaa !44
  %71 = sext i32 %70 to i64
  %72 = invoke noundef nonnull align 4 dereferenceable(4) ptr @_ZNK4ncnn3MatixEm(ptr noundef nonnull align 8 dereferenceable(72) %69, i64 noundef %71)
          to label %73 unwind label %113

73:                                               ; preds = %68
  %74 = load float, ptr %72, align 4, !tbaa !67
  store float %74, ptr %27, align 4, !tbaa !67
  call void @llvm.lifetime.start.p0(i64 4, ptr %28) #10
  %75 = getelementptr inbounds nuw %"class.ncnn::Scale", ptr %33, i32 0, i32 4
  %76 = load i32, ptr %25, align 4, !tbaa !44
  %77 = sext i32 %76 to i64
  %78 = invoke noundef nonnull align 4 dereferenceable(4) ptr @_ZNK4ncnn3MatixEm(ptr noundef nonnull align 8 dereferenceable(72) %75, i64 noundef %77)
          to label %79 unwind label %113

79:                                               ; preds = %73
  %80 = load float, ptr %78, align 4, !tbaa !67
  store float %80, ptr %28, align 4, !tbaa !67
  call void @llvm.lifetime.start.p0(i64 4, ptr %29) #10
  store i32 0, ptr %29, align 4, !tbaa !44
  br label %81

81:                                               ; preds = %100, %79
  %82 = load i32, ptr %29, align 4, !tbaa !44
  %83 = load i32, ptr %34, align 4, !tbaa !44
  %84 = icmp slt i32 %82, %83
  br i1 %84, label %86, label %85

85:                                               ; preds = %81
  call void @llvm.lifetime.end.p0(i64 4, ptr %29) #10
  br label %103

86:                                               ; preds = %81
  %87 = load ptr, ptr %26, align 8, !tbaa !46
  %88 = load i32, ptr %29, align 4, !tbaa !44
  %89 = sext i32 %88 to i64
  %90 = getelementptr inbounds float, ptr %87, i64 %89
  %91 = load float, ptr %90, align 4, !tbaa !67
  %92 = load float, ptr %27, align 4, !tbaa !67
  %93 = fmul fast float %91, %92
  %94 = load float, ptr %28, align 4, !tbaa !67
  %95 = fadd fast float %93, %94
  %96 = load ptr, ptr %26, align 8, !tbaa !46
  %97 = load i32, ptr %29, align 4, !tbaa !44
  %98 = sext i32 %97 to i64
  %99 = getelementptr inbounds float, ptr %96, i64 %98
  store float %95, ptr %99, align 4, !tbaa !67
  br label %100

100:                                              ; preds = %86
  %101 = load i32, ptr %29, align 4, !tbaa !44
  %102 = add nsw i32 %101, 1
  store i32 %102, ptr %29, align 4, !tbaa !44
  br label %81, !llvm.loop !71

103:                                              ; preds = %85
  call void @llvm.lifetime.end.p0(i64 4, ptr %28) #10
  call void @llvm.lifetime.end.p0(i64 4, ptr %27) #10
  call void @llvm.lifetime.end.p0(i64 8, ptr %26) #10
  br label %104

104:                                              ; preds = %103
  br label %105

105:                                              ; preds = %104
  %106 = load i32, ptr %17, align 4, !tbaa !44
  %107 = add nsw i32 %106, 1
  store i32 %107, ptr %17, align 4, !tbaa !44
  br label %56

108:                                              ; preds = %60
  br label %109

109:                                              ; preds = %108
  %110 = load ptr, ptr %8, align 8
  %111 = load i32, ptr %110, align 4, !tbaa !44
  call void @__kmpc_for_static_fini(ptr @1, i32 %111)
  call void @llvm.lifetime.end.p0(i64 4, ptr %25) #10
  call void @llvm.lifetime.end.p0(i64 4, ptr %24) #10
  call void @llvm.lifetime.end.p0(i64 4, ptr %23) #10
  call void @llvm.lifetime.end.p0(i64 4, ptr %22) #10
  call void @llvm.lifetime.end.p0(i64 4, ptr %21) #10
  br label %112

112:                                              ; preds = %109, %7
  call void @llvm.lifetime.end.p0(i64 4, ptr %19) #10
  call void @llvm.lifetime.end.p0(i64 4, ptr %18) #10
  call void @llvm.lifetime.end.p0(i64 4, ptr %17) #10
  ret void

113:                                              ; preds = %73, %68, %61
  %114 = landingpad { ptr, i32 }
          catch ptr null
  %115 = extractvalue { ptr, i32 } %114, 0
  call void @__clang_call_terminate(ptr %115) #17
  unreachable
}