; Function Attrs: alwaysinline norecurse nounwind uwtable
define internal void @_ZNK4ncnn5Scale15forward_inplaceERSt6vectorINS_3MatESaIS2_EERKNS_6OptionE.omp_outlined.2(ptr noalias noundef readonly captures(none) %0, ptr noalias readnone captures(none) %1, ptr noundef nonnull readonly align 4 captures(none) dereferenceable(4) %2, ptr noundef nonnull readonly align 8 captures(none) dereferenceable(72) %3, ptr noundef nonnull readonly align 8 captures(none) dereferenceable(72) %4, ptr noundef readonly captures(none) %5, ptr noundef nonnull readonly align 4 captures(none) dereferenceable(4) %6) #9 personality ptr @__gxx_personality_v0 {
  %8 = alloca i32, align 4
  %9 = alloca i32, align 4
  %10 = alloca i32, align 4
  %11 = alloca i32, align 4
  %12 = load i32, ptr %2, align 4, !tbaa !44
  %13 = icmp sgt i32 %12, 0
  br i1 %13, label %14, label %43

14:                                               ; preds = %7
  %15 = add nsw i32 %12, -1
  call void @llvm.lifetime.start.p0(i64 4, ptr nonnull %8) #10
  store i32 0, ptr %8, align 4, !tbaa !44
  call void @llvm.lifetime.start.p0(i64 4, ptr nonnull %9) #10
  store i32 %15, ptr %9, align 4, !tbaa !44
  call void @llvm.lifetime.start.p0(i64 4, ptr nonnull %10) #10
  store i32 1, ptr %10, align 4, !tbaa !44
  call void @llvm.lifetime.start.p0(i64 4, ptr nonnull %11) #10
  store i32 0, ptr %11, align 4, !tbaa !44
  %16 = load i32, ptr %0, align 4, !tbaa !44
  call void @__kmpc_for_static_init_4(ptr nonnull @1, i32 %16, i32 34, ptr nonnull %11, ptr nonnull %8, ptr nonnull %9, ptr nonnull %10, i32 1, i32 1)
  %17 = load i32, ptr %9, align 4, !tbaa !44
  %18 = call i32 @llvm.smin.i32(i32 %17, i32 %15)
  store i32 %18, ptr %9, align 4, !tbaa !44
  %19 = load i32, ptr %8, align 4, !tbaa !44
  %.not29 = icmp sgt i32 %19, %18
  br i1 %.not29, label %._crit_edge33, label %.lr.ph32

.lr.ph32:                                         ; preds = %14
  %20 = load ptr, ptr %3, align 8, !tbaa !16
  %21 = getelementptr inbounds nuw i8, ptr %3, i64 44
  %22 = load i32, ptr %21, align 4, !tbaa !39
  %23 = sext i32 %22 to i64
  %24 = getelementptr inbounds nuw i8, ptr %3, i64 16
  %25 = load i64, ptr %24, align 8, !tbaa !36
  %factor.op.mul = mul i64 %25, %23
  %26 = load ptr, ptr %4, align 8, !tbaa !16
  %27 = getelementptr inbounds nuw i8, ptr %5, i64 288
  %28 = load ptr, ptr %27, align 8, !tbaa !16
  %29 = load i32, ptr %6, align 4, !tbaa !44
  %30 = icmp sgt i32 %29, 0
  br i1 %30, label %.lr.ph.us.preheader, label %._crit_edge33

.lr.ph.us.preheader:                              ; preds = %.lr.ph32
  %31 = sext i32 %19 to i64
  %32 = add nsw i32 %18, 1
  %wide.trip.count = zext nneg i32 %29 to i64
  br label %.lr.ph.us

.lr.ph.us:                                        ; preds = %.lr.ph.us.preheader, %._crit_edge.us
  %indvars.iv36 = phi i64 [ %31, %.lr.ph.us.preheader ], [ %indvars.iv.next37, %._crit_edge.us ]
  %.reass.us = mul i64 %factor.op.mul, %indvars.iv36
  %33 = getelementptr inbounds nuw i8, ptr %20, i64 %.reass.us
  %34 = getelementptr inbounds nuw float, ptr %26, i64 %indvars.iv36
  %35 = load float, ptr %34, align 4, !tbaa !55
  %36 = getelementptr inbounds nuw float, ptr %28, i64 %indvars.iv36
  %37 = load float, ptr %36, align 4, !tbaa !55
  br label %38

38:                                               ; preds = %.lr.ph.us, %38
  %indvars.iv = phi i64 [ 0, %.lr.ph.us ], [ %indvars.iv.next, %38 ]
  %39 = getelementptr inbounds nuw float, ptr %33, i64 %indvars.iv
  %40 = load float, ptr %39, align 4, !tbaa !55
  %41 = fmul fast float %40, %35
  %42 = fadd fast float %41, %37
  store float %42, ptr %39, align 4, !tbaa !55
  %indvars.iv.next = add nuw nsw i64 %indvars.iv, 1
  %exitcond.not = icmp eq i64 %indvars.iv.next, %wide.trip.count
  br i1 %exitcond.not, label %._crit_edge.us, label %38, !llvm.loop !59

._crit_edge.us:                                   ; preds = %38
  %indvars.iv.next37 = add nsw i64 %indvars.iv36, 1
  %lftr.wideiv = trunc i64 %indvars.iv.next37 to i32
  %exitcond39.not = icmp eq i32 %32, %lftr.wideiv
  br i1 %exitcond39.not, label %._crit_edge33, label %.lr.ph.us

._crit_edge33:                                    ; preds = %._crit_edge.us, %.lr.ph32, %14
  call void @__kmpc_for_static_fini(ptr nonnull @1, i32 %16)
  call void @llvm.lifetime.end.p0(i64 4, ptr nonnull %11) #10
  call void @llvm.lifetime.end.p0(i64 4, ptr nonnull %10) #10
  call void @llvm.lifetime.end.p0(i64 4, ptr nonnull %9) #10
  call void @llvm.lifetime.end.p0(i64 4, ptr nonnull %8) #10
  br label %43

43:                                               ; preds = %._crit_edge33, %7
  ret void
}